target datalayout = "e-m:e-p270:32:32-p271:32:32-p272:64:64-i64:64-i128:128-f80:128-n8:16:32:64-S128"
target triple = "x86_64-pc-linux-gnu"

%struct._object = type { %union.anon, ptr }
%union.anon = type { i64 }
%struct.pysqlite_state = type { ptr, ptr, ptr, ptr, ptr, ptr, ptr, ptr, ptr, ptr, ptr, ptr, ptr, i32, i32, ptr, ptr, ptr, ptr, ptr, ptr, ptr, ptr, ptr, ptr, ptr, ptr, ptr, ptr }
%struct._callback_context = type { ptr, ptr, ptr }
%struct.anon = type { i32, i32 }

@PyExc_AttributeError = external global ptr, align 8
@.str.96 = private unnamed_addr constant [52 x i8] c"user-defined aggregate's 'value' method not defined\00", align 1
@.str.97 = private unnamed_addr constant [53 x i8] c"user-defined aggregate's 'value' method raised error\00", align 1
@.str.98 = private unnamed_addr constant [66 x i8] c"unable to set result from user-defined aggregate's 'value' method\00", align 1

; Function Attrs: alwaysinline nounwind uwtable
define internal i32 @_Py_IsImmortal(ptr noundef %0) #5 {
  %2 = alloca ptr, align 8
  store ptr %0, ptr %2, align 8, !tbaa !22
  %3 = load ptr, ptr %2, align 8, !tbaa !22
  %4 = getelementptr inbounds nuw %struct._object, ptr %3, i32 0, i32 0
  %5 = getelementptr inbounds nuw %struct.anon, ptr %4, i32 0, i32 0
  %6 = load i32, ptr %5, align 8, !tbaa !65
  %7 = icmp slt i32 %6, 0
  %8 = zext i1 %7 to i32
  ret i32 %8
}

; Function Attrs: alwaysinline nounwind uwtable
define internal void @Py_DECREF(ptr noundef %0) #5 {
  %2 = alloca ptr, align 8
  store ptr %0, ptr %2, align 8, !tbaa !22
  %3 = load ptr, ptr %2, align 8, !tbaa !22
  %4 = call i32 @_Py_IsImmortal(ptr noundef %3)
  %5 = icmp ne i32 %4, 0
  br i1 %5, label %6, label %7

6:                                                ; preds = %1
  br label %16

7:                                                ; preds = %1
  %8 = load ptr, ptr %2, align 8, !tbaa !22
  %9 = getelementptr inbounds nuw %struct._object, ptr %8, i32 0, i32 0
  %10 = getelementptr inbounds nuw %struct.anon, ptr %9, i32 0, i32 0
  %11 = load i32, ptr %10, align 8, !tbaa !65
  %12 = add i32 %11, -1
  store i32 %12, ptr %10, align 8, !tbaa !65
  %13 = icmp eq i32 %12, 0
  br i1 %13, label %14, label %16

14:                                               ; preds = %7
  %15 = load ptr, ptr %2, align 8, !tbaa !22
  call void @_Py_Dealloc(ptr noundef %15)
  br label %16

16:                                               ; preds = %6, %14, %7
  ret void
}

; Function Attrs: inlinehint nounwind uwtable
define internal ptr @PyObject_CallMethodNoArgs(ptr noundef %0, ptr noundef %1) #2 {
  %3 = alloca ptr, align 8
  %4 = alloca ptr, align 8
  %5 = alloca i64, align 8
  store ptr %0, ptr %3, align 8, !tbaa !22
  store ptr %1, ptr %4, align 8, !tbaa !22
  call void @llvm.lifetime.start.p0(i64 8, ptr %5) #8
  store i64 -9223372036854775807, ptr %5, align 8, !tbaa !39
  %6 = load ptr, ptr %4, align 8, !tbaa !22
  %7 = load i64, ptr %5, align 8, !tbaa !39
  %8 = call ptr @PyObject_VectorcallMethod(ptr noundef %6, ptr noundef %3, i64 noundef %7, ptr noundef null)
  call void @llvm.lifetime.end.p0(i64 8, ptr %5) #8
  ret ptr %8
}

; Function Attrs: nounwind uwtable
define internal void @value_callback(ptr noundef %0) #0 {
  %2 = alloca ptr, align 8
  %3 = alloca i32, align 4
  %4 = alloca ptr, align 8
  %5 = alloca i32, align 4
  %6 = alloca ptr, align 8
  %7 = alloca ptr, align 8
  %8 = alloca i32, align 4
  %9 = alloca i32, align 4
  store ptr %0, ptr %2, align 8, !tbaa !83
  call void @llvm.lifetime.start.p0(i64 4, ptr %3) #8
  %10 = call i32 @PyGILState_Ensure()
  store i32 %10, ptr %3, align 4, !tbaa !30
  call void @llvm.lifetime.start.p0(i64 8, ptr %4) #8
  %11 = load ptr, ptr %2, align 8, !tbaa !83
  %12 = call ptr @sqlite3_user_data(ptr noundef %11)
  store ptr %12, ptr %4, align 8, !tbaa !64
  call void @llvm.lifetime.start.p0(i64 4, ptr %5) #8
  store i32 8, ptr %5, align 4, !tbaa !30
  call void @llvm.lifetime.start.p0(i64 8, ptr %6) #8
  %13 = load ptr, ptr %2, align 8, !tbaa !83
  %14 = load i32, ptr %5, align 4, !tbaa !30
  %15 = call ptr @sqlite3_aggregate_context(ptr noundef %13, i32 noundef %14)
  store ptr %15, ptr %6, align 8, !tbaa !43
  call void @llvm.lifetime.start.p0(i64 8, ptr %7) #8
  %16 = load ptr, ptr %6, align 8, !tbaa !43
  %17 = load ptr, ptr %16, align 8, !tbaa !22
  %18 = load ptr, ptr %4, align 8, !tbaa !64
  %19 = getelementptr inbounds nuw %struct._callback_context, ptr %18, i32 0, i32 2
  %20 = load ptr, ptr %19, align 8, !tbaa !82
  %21 = getelementptr inbounds nuw %struct.pysqlite_state, ptr %20, i32 0, i32 28
  %22 = load ptr, ptr %21, align 8, !tbaa !100
  %23 = call ptr @PyObject_CallMethodNoArgs(ptr noundef %17, ptr noundef %22)
  store ptr %23, ptr %7, align 8, !tbaa !22
  %24 = load ptr, ptr %7, align 8, !tbaa !22
  %25 = icmp eq ptr %24, null
  br i1 %25, label %26, label %33

26:                                               ; preds = %1
  call void @llvm.lifetime.start.p0(i64 4, ptr %8) #8
  %27 = load ptr, ptr @PyExc_AttributeError, align 8, !tbaa !22
  %28 = call i32 @PyErr_ExceptionMatches(ptr noundef %27)
  store i32 %28, ptr %8, align 4, !tbaa !30
  %29 = load ptr, ptr %2, align 8, !tbaa !83
  %30 = load i32, ptr %8, align 4, !tbaa !30
  %31 = icmp ne i32 %30, 0
  %32 = select i1 %31, ptr @.str.96, ptr @.str.97
  call void @set_sqlite_error(ptr noundef %29, ptr noundef %32)
  call void @llvm.lifetime.end.p0(i64 4, ptr %8) #8
  br label %43

33:                                               ; preds = %1
  call void @llvm.lifetime.start.p0(i64 4, ptr %9) #8
  %34 = load ptr, ptr %2, align 8, !tbaa !83
  %35 = load ptr, ptr %7, align 8, !tbaa !22
  %36 = call i32 @_pysqlite_set_result(ptr noundef %34, ptr noundef %35)
  store i32 %36, ptr %9, align 4, !tbaa !30
  %37 = load ptr, ptr %7, align 8, !tbaa !22
  call void @Py_DECREF(ptr noundef %37)
  %38 = load i32, ptr %9, align 4, !tbaa !30
  %39 = icmp slt i32 %38, 0
  br i1 %39, label %40, label %42

40:                                               ; preds = %33
  %41 = load ptr, ptr %2, align 8, !tbaa !83
  call void @set_sqlite_error(ptr noundef %41, ptr noundef @.str.98)
  br label %42

42:                                               ; preds = %40, %33
  call void @llvm.lifetime.end.p0(i64 4, ptr %9) #8
  br label %43

43:                                               ; preds = %42, %26
  %44 = load i32, ptr %3, align 4, !tbaa !30
  call void @PyGILState_Release(i32 noundef %44)
  call void @llvm.lifetime.end.p0(i64 8, ptr %7) #8
  call void @llvm.lifetime.end.p0(i64 8, ptr %6) #8
  call void @llvm.lifetime.end.p0(i64 4, ptr %5) #8
  call void @llvm.lifetime.end.p0(i64 8, ptr %4) #8
  call void @llvm.lifetime.end.p0(i64 4, ptr %3) #8
  ret void
}