; Function Attrs: nounwind uwtable
define internal void @value_callback(ptr noundef %0) #0 {
  %2 = alloca ptr, align 8
  %3 = tail call i32 @PyGILState_Ensure() #7
  %4 = tail call ptr @sqlite3_user_data(ptr noundef %0) #7
  %5 = tail call ptr @sqlite3_aggregate_context(ptr noundef %0, i32 noundef 8) #7
  %6 = load ptr, ptr %5, align 8, !tbaa !25
  %7 = getelementptr inbounds nuw i8, ptr %4, i64 16
  %8 = load ptr, ptr %7, align 8, !tbaa !87
  %9 = getelementptr inbounds nuw i8, ptr %8, i64 216
  %10 = load ptr, ptr %9, align 8, !tbaa !105
  call void @llvm.lifetime.start.p0(i64 8, ptr nonnull %2)
  store ptr %6, ptr %2, align 8, !tbaa !25
  %11 = call ptr @PyObject_VectorcallMethod(ptr noundef %10, ptr noundef nonnull %2, i64 noundef -9223372036854775807, ptr noundef null) #7
  call void @llvm.lifetime.end.p0(i64 8, ptr nonnull %2)
  %12 = icmp eq ptr %11, null
  br i1 %12, label %13, label %17

13:                                               ; preds = %1
  %14 = load ptr, ptr @PyExc_AttributeError, align 8, !tbaa !25
  %15 = call i32 @PyErr_ExceptionMatches(ptr noundef %14) #7
  %.not = icmp eq i32 %15, 0
  %16 = select i1 %.not, ptr @.str.97, ptr @.str.96
  br label %.sink.split

17:                                               ; preds = %1
  %18 = call fastcc i32 @_pysqlite_set_result(ptr noundef %0, ptr noundef %11)
  %19 = load i32, ptr %11, align 8, !tbaa !34
  %.not.i = icmp sgt i32 %19, -1
  br i1 %.not.i, label %20, label %Py_DECREF.exit

20:                                               ; preds = %17
  %21 = add nsw i32 %19, -1
  store i32 %21, ptr %11, align 8, !tbaa !34
  %22 = icmp eq i32 %21, 0
  br i1 %22, label %23, label %Py_DECREF.exit

23:                                               ; preds = %20
  call void @_Py_Dealloc(ptr noundef nonnull %11) #7
  br label %Py_DECREF.exit

Py_DECREF.exit:                                   ; preds = %17, %20, %23
  %24 = icmp slt i32 %18, 0
  br i1 %24, label %.sink.split, label %25

.sink.split:                                      ; preds = %Py_DECREF.exit, %13
  %.str.98.sink = phi ptr [ %16, %13 ], [ @.str.98, %Py_DECREF.exit ]
  call fastcc void @set_sqlite_error(ptr noundef %0, ptr noundef nonnull %.str.98.sink)
  br label %25

25:                                               ; preds = %.sink.split, %Py_DECREF.exit
  call void @PyGILState_Release(i32 noundef %3) #7
  ret void
}